target datalayout = "e-m:e-p270:32:32-p271:32:32-p272:64:64-i64:64-i128:128-f80:128-n8:16:32:64-S128"
target triple = "x86_64-pc-linux-gnu"

%"class.cv::Size_" = type { i32, i32 }
%"class.cv::detail::tracking::contrib_feature::CvFeatureEvaluator" = type { ptr, i32, i32, i32, %"class.cv::Size_", ptr, %"class.cv::Mat" }
%"class.cv::Mat" = type { i32, i32, i32, i32, ptr, ptr, ptr, ptr, ptr, ptr, %"struct.cv::MatSize", %"struct.cv::MatStep" }
%"struct.cv::MatSize" = type { ptr }
%"struct.cv::MatStep" = type { ptr, [2 x i64] }
%"class.cv::detail::tracking::contrib_feature::CvHaarEvaluator" = type { %"class.cv::detail::tracking::contrib_feature::CvFeatureEvaluator", i8, %"class.cv::Mat", %"class.std::vector", %"class.cv::Mat" }
%"class.std::vector" = type { %"struct.std::_Vector_base" }
%"struct.std::_Vector_base" = type { %"struct.std::_Vector_base<cv::detail::tracking::contrib_feature::CvHaarEvaluator::FeatureHaar, std::allocator<cv::detail::tracking::contrib_feature::CvHaarEvaluator::FeatureHaar>>::_Vector_impl" }
%"struct.std::_Vector_base<cv::detail::tracking::contrib_feature::CvHaarEvaluator::FeatureHaar, std::allocator<cv::detail::tracking::contrib_feature::CvHaarEvaluator::FeatureHaar>>::_Vector_impl" = type { %"struct.std::_Vector_base<cv::detail::tracking::contrib_feature::CvHaarEvaluator::FeatureHaar, std::allocator<cv::detail::tracking::contrib_feature::CvHaarEvaluator::FeatureHaar>>::_Vector_impl_data" }
%"struct.std::_Vector_base<cv::detail::tracking::contrib_feature::CvHaarEvaluator::FeatureHaar, std::allocator<cv::detail::tracking::contrib_feature::CvHaarEvaluator::FeatureHaar>>::_Vector_impl_data" = type { ptr, ptr, ptr }

; Function Attrs: mustprogress uwtable
define hidden void @_ZNK2cv6detail8tracking15contrib_feature15CvHaarEvaluator13writeFeaturesERNS_11FileStorageERKNS_3MatE(ptr noundef nonnull align 8 dereferenceable(360) %0, ptr noundef nonnull align 8 dereferenceable(64) %1, ptr noundef nonnull align 8 dereferenceable(96) %2) unnamed_addr #4 align 2 personality ptr @__gxx_personality_v0 {
  %4 = alloca ptr, align 8
  %5 = alloca ptr, align 8
  %6 = alloca ptr, align 8
  %7 = alloca %"class.std::vector", align 8
  %8 = alloca ptr, align 8
  %9 = alloca i32, align 4
  store ptr %0, ptr %4, align 8, !tbaa !81
  store ptr %1, ptr %5, align 8, !tbaa !30
  store ptr %2, ptr %6, align 8, !tbaa !68
  %10 = load ptr, ptr %4, align 8
  %11 = getelementptr inbounds nuw %"class.cv::detail::tracking::contrib_feature::CvHaarEvaluator", ptr %10, i32 0, i32 3
  call void @_ZNSt6vectorIN2cv6detail8tracking15contrib_feature15CvHaarEvaluator11FeatureHaarESaIS5_EEC2ERKS7_(ptr noundef nonnull align 8 dereferenceable(24) %7, ptr noundef nonnull align 8 dereferenceable(24) %11)
  %12 = load ptr, ptr %5, align 8, !tbaa !30
  %13 = load ptr, ptr %6, align 8, !tbaa !68
  invoke void @_ZN2cv6detail8tracking15contrib_feature14_writeFeaturesINS2_15CvHaarEvaluator11FeatureHaarEEEvSt6vectorIT_SaIS7_EERNS_11FileStorageERKNS_3MatE(ptr noundef %7, ptr noundef nonnull align 8 dereferenceable(64) %12, ptr noundef nonnull align 8 dereferenceable(96) %13)
          to label %14 unwind label %15

14:                                               ; preds = %3
  call void @_ZNSt6vectorIN2cv6detail8tracking15contrib_feature15CvHaarEvaluator11FeatureHaarESaIS5_EED2Ev(ptr noundef nonnull align 8 dereferenceable(24) %7) #3
  ret void

15:                                               ; preds = %3
  %16 = landingpad { ptr, i32 }
          cleanup
  %17 = extractvalue { ptr, i32 } %16, 0
  store ptr %17, ptr %8, align 8
  %18 = extractvalue { ptr, i32 } %16, 1
  store i32 %18, ptr %9, align 4
  call void @_ZNSt6vectorIN2cv6detail8tracking15contrib_feature15CvHaarEvaluator11FeatureHaarESaIS5_EED2Ev(ptr noundef nonnull align 8 dereferenceable(24) %7) #3
  br label %19

19:                                               ; preds = %15
  %20 = load ptr, ptr %8, align 8
  %21 = load i32, ptr %9, align 4
  %22 = insertvalue { ptr, i32 } poison, ptr %20, 0
  %23 = insertvalue { ptr, i32 } %22, i32 %21, 1
  resume { ptr, i32 } %23
}