; Function Attrs: mustprogress uwtable
define hidden void @_ZNK2cv6detail8tracking15contrib_feature15CvHaarEvaluator13writeFeaturesERNS_11FileStorageERKNS_3MatE(ptr noundef nonnull align 8 dereferenceable(360) %0, ptr noundef nonnull align 8 dereferenceable(64) %1, ptr noundef nonnull align 8 dereferenceable(96) %2) unnamed_addr #5 align 2 personality ptr @__gxx_personality_v0 {
  %4 = alloca %"class.std::vector", align 8
  %5 = getelementptr inbounds nuw i8, ptr %0, i64 240
  call void @_ZNSt6vectorIN2cv6detail8tracking15contrib_feature15CvHaarEvaluator11FeatureHaarESaIS5_EEC2ERKS7_(ptr noundef nonnull align 8 dereferenceable(24) %4, ptr noundef nonnull align 8 dereferenceable(24) %5)
  invoke void @_ZN2cv6detail8tracking15contrib_feature14_writeFeaturesINS2_15CvHaarEvaluator11FeatureHaarEEEvSt6vectorIT_SaIS7_EERNS_11FileStorageERKNS_3MatE(ptr noundef nonnull %4, ptr noundef nonnull align 8 dereferenceable(64) %1, ptr noundef nonnull align 8 dereferenceable(96) %2)
          to label %6 unwind label %25

6:                                                ; preds = %3
  %7 = load ptr, ptr %4, align 8, !tbaa !124
  %8 = getelementptr inbounds nuw i8, ptr %4, i64 8
  %9 = load ptr, ptr %8, align 8, !tbaa !125
  %.not4.i.i.i.i = icmp eq ptr %7, %9
  br i1 %.not4.i.i.i.i, label %_ZSt8_DestroyIPN2cv6detail8tracking15contrib_feature15CvHaarEvaluator11FeatureHaarES5_EvT_S7_RSaIT0_E.exit.i, label %.lr.ph.i.i.i.i

.lr.ph.i.i.i.i:                                   ; preds = %6, %_ZSt8_DestroyIN2cv6detail8tracking15contrib_feature15CvHaarEvaluator11FeatureHaarEEvPT_.exit.i.i.i.i
  %.05.i.i.i.i = phi ptr [ %22, %_ZSt8_DestroyIN2cv6detail8tracking15contrib_feature15CvHaarEvaluator11FeatureHaarEEvPT_.exit.i.i.i.i ], [ %7, %6 ]
  %10 = getelementptr inbounds nuw i8, ptr %.05.i.i.i.i, i64 112
  %11 = load ptr, ptr %10, align 8, !tbaa !126
  %.not.i.i.i.i.i.i.i.i.i = icmp eq ptr %11, null
  br i1 %.not.i.i.i.i.i.i.i.i.i, label %_ZNSt6vectorIfSaIfEED2Ev.exit.i.i.i.i.i.i, label %12

12:                                               ; preds = %.lr.ph.i.i.i.i
  call void @_ZdlPv(ptr noundef nonnull %11) #30
  br label %_ZNSt6vectorIfSaIfEED2Ev.exit.i.i.i.i.i.i

_ZNSt6vectorIfSaIfEED2Ev.exit.i.i.i.i.i.i:        ; preds = %12, %.lr.ph.i.i.i.i
  %13 = getelementptr inbounds nuw i8, ptr %.05.i.i.i.i, i64 88
  %14 = load ptr, ptr %13, align 8, !tbaa !129
  %.not.i.i.i1.i.i.i.i.i.i = icmp eq ptr %14, null
  br i1 %.not.i.i.i1.i.i.i.i.i.i, label %_ZNSt6vectorIN2cv5Rect_IiEESaIS2_EED2Ev.exit.i.i.i.i.i.i, label %15

15:                                               ; preds = %_ZNSt6vectorIfSaIfEED2Ev.exit.i.i.i.i.i.i
  call void @_ZdlPv(ptr noundef nonnull %14) #30
  br label %_ZNSt6vectorIN2cv5Rect_IiEESaIS2_EED2Ev.exit.i.i.i.i.i.i

_ZNSt6vectorIN2cv5Rect_IiEESaIS2_EED2Ev.exit.i.i.i.i.i.i: ; preds = %15, %_ZNSt6vectorIfSaIfEED2Ev.exit.i.i.i.i.i.i
  %16 = getelementptr inbounds nuw i8, ptr %.05.i.i.i.i, i64 40
  %17 = load ptr, ptr %16, align 8, !tbaa !129
  %.not.i.i.i2.i.i.i.i.i.i = icmp eq ptr %17, null
  br i1 %.not.i.i.i2.i.i.i.i.i.i, label %_ZNSt6vectorIN2cv5Rect_IiEESaIS2_EED2Ev.exit3.i.i.i.i.i.i, label %18

18:                                               ; preds = %_ZNSt6vectorIN2cv5Rect_IiEESaIS2_EED2Ev.exit.i.i.i.i.i.i
  call void @_ZdlPv(ptr noundef nonnull %17) #30
  br label %_ZNSt6vectorIN2cv5Rect_IiEESaIS2_EED2Ev.exit3.i.i.i.i.i.i

_ZNSt6vectorIN2cv5Rect_IiEESaIS2_EED2Ev.exit3.i.i.i.i.i.i: ; preds = %18, %_ZNSt6vectorIN2cv5Rect_IiEESaIS2_EED2Ev.exit.i.i.i.i.i.i
  %19 = getelementptr inbounds nuw i8, ptr %.05.i.i.i.i, i64 8
  %20 = load ptr, ptr %19, align 8, !tbaa !126
  %.not.i.i.i4.i.i.i.i.i.i = icmp eq ptr %20, null
  br i1 %.not.i.i.i4.i.i.i.i.i.i, label %_ZSt8_DestroyIN2cv6detail8tracking15contrib_feature15CvHaarEvaluator11FeatureHaarEEvPT_.exit.i.i.i.i, label %21

21:                                               ; preds = %_ZNSt6vectorIN2cv5Rect_IiEESaIS2_EED2Ev.exit3.i.i.i.i.i.i
  call void @_ZdlPv(ptr noundef nonnull %20) #30
  br label %_ZSt8_DestroyIN2cv6detail8tracking15contrib_feature15CvHaarEvaluator11FeatureHaarEEvPT_.exit.i.i.i.i

_ZSt8_DestroyIN2cv6detail8tracking15contrib_feature15CvHaarEvaluator11FeatureHaarEEvPT_.exit.i.i.i.i: ; preds = %21, %_ZNSt6vectorIN2cv5Rect_IiEESaIS2_EED2Ev.exit3.i.i.i.i.i.i
  %22 = getelementptr inbounds nuw i8, ptr %.05.i.i.i.i, i64 136
  %.not.i.i.i.i = icmp eq ptr %22, %9
  br i1 %.not.i.i.i.i, label %_ZSt8_DestroyIPN2cv6detail8tracking15contrib_feature15CvHaarEvaluator11FeatureHaarES5_EvT_S7_RSaIT0_E.exitthread-pre-split.i, label %.lr.ph.i.i.i.i, !llvm.loop !132

_ZSt8_DestroyIPN2cv6detail8tracking15contrib_feature15CvHaarEvaluator11FeatureHaarES5_EvT_S7_RSaIT0_E.exitthread-pre-split.i: ; preds = %_ZSt8_DestroyIN2cv6detail8tracking15contrib_feature15CvHaarEvaluator11FeatureHaarEEvPT_.exit.i.i.i.i
  %.pr.i = load ptr, ptr %4, align 8, !tbaa !124
  br label %_ZSt8_DestroyIPN2cv6detail8tracking15contrib_feature15CvHaarEvaluator11FeatureHaarES5_EvT_S7_RSaIT0_E.exit.i

_ZSt8_DestroyIPN2cv6detail8tracking15contrib_feature15CvHaarEvaluator11FeatureHaarES5_EvT_S7_RSaIT0_E.exit.i: ; preds = %_ZSt8_DestroyIPN2cv6detail8tracking15contrib_feature15CvHaarEvaluator11FeatureHaarES5_EvT_S7_RSaIT0_E.exitthread-pre-split.i, %6
  %23 = phi ptr [ %.pr.i, %_ZSt8_DestroyIPN2cv6detail8tracking15contrib_feature15CvHaarEvaluator11FeatureHaarES5_EvT_S7_RSaIT0_E.exitthread-pre-split.i ], [ %7, %6 ]
  %.not.i.i.i = icmp eq ptr %23, null
  br i1 %.not.i.i.i, label %_ZNSt6vectorIN2cv6detail8tracking15contrib_feature15CvHaarEvaluator11FeatureHaarESaIS5_EED2Ev.exit, label %24

24:                                               ; preds = %_ZSt8_DestroyIPN2cv6detail8tracking15contrib_feature15CvHaarEvaluator11FeatureHaarES5_EvT_S7_RSaIT0_E.exit.i
  call void @_ZdlPv(ptr noundef nonnull %23) #30
  br label %_ZNSt6vectorIN2cv6detail8tracking15contrib_feature15CvHaarEvaluator11FeatureHaarESaIS5_EED2Ev.exit

_ZNSt6vectorIN2cv6detail8tracking15contrib_feature15CvHaarEvaluator11FeatureHaarESaIS5_EED2Ev.exit: ; preds = %_ZSt8_DestroyIPN2cv6detail8tracking15contrib_feature15CvHaarEvaluator11FeatureHaarES5_EvT_S7_RSaIT0_E.exit.i, %24
  ret void

25:                                               ; preds = %3
  %26 = landingpad { ptr, i32 }
          cleanup
  call void @_ZNSt6vectorIN2cv6detail8tracking15contrib_feature15CvHaarEvaluator11FeatureHaarESaIS5_EED2Ev(ptr noundef nonnull align 8 dereferenceable(24) %4) #31
  resume { ptr, i32 } %26
}